; Function Attrs: nounwind uwtable
define range(i32 0, 2) i32 @stbi_write_png_to_func(ptr noundef readonly captures(none) %0, ptr noundef %1, i32 noundef %2, i32 noundef %3, i32 noundef %4, ptr noundef readonly captures(none) %5, i32 noundef %6) local_unnamed_addr #5 {
  %8 = alloca i32, align 4
  call void @llvm.lifetime.start.p0(i64 4, ptr nonnull %8) #26
  %9 = call ptr @stbi_write_png_to_mem(ptr noundef %5, i32 noundef %6, i32 noundef %2, i32 noundef %3, i32 noundef %4, ptr noundef nonnull %8)
  %10 = icmp eq ptr %9, null
  br i1 %10, label %13, label %11

11:                                               ; preds = %7
  %12 = load i32, ptr %8, align 4, !tbaa !3
  tail call void %0(ptr noundef %1, ptr noundef nonnull %9, i32 noundef %12) #26
  tail call void @free(ptr noundef nonnull %9) #26
  br label %13

13:                                               ; preds = %7, %11
  %.0 = phi i32 [ 1, %11 ], [ 0, %7 ]
  call void @llvm.lifetime.end.p0(i64 4, ptr nonnull %8) #26
  ret i32 %.0
}